target datalayout = "e-m:e-p270:32:32-p271:32:32-p272:64:64-i64:64-i128:128-f80:128-n8:16:32:64-S128"
target triple = "x86_64-pc-linux-gnu"

%struct._zval_struct = type { %union._zend_value, %union.anon.9, %union.anon.12 }
%union._zend_value = type { i64 }
%union.anon.9 = type { i32 }
%union.anon.12 = type { i32 }
%struct._zend_refcounted_h = type { i32, %union.anon.0 }
%union.anon.0 = type { i32 }
%struct._xmlNode = type { ptr, i32, ptr, ptr, ptr, ptr, ptr, ptr, ptr, ptr, ptr, ptr, ptr, ptr, i16, i16 }
%struct._php_libxml_ref_obj = type { ptr, ptr, %struct.php_libxml_cache_tag, i32, i8 }
%struct.php_libxml_cache_tag = type { i64 }
%struct._dom_object = type { ptr, ptr, ptr, %struct._zend_object }
%struct._zend_object = type { %struct._zend_refcounted_h, i32, ptr, ptr, ptr, [1 x %struct._zval_struct] }

; Function Attrs: nounwind uwtable
define hidden ptr @dom_clone_node(ptr noundef %0, ptr noundef %1, ptr noundef %2, i1 noundef zeroext %3) #0 {
  %5 = alloca ptr, align 8
  %6 = alloca ptr, align 8
  %7 = alloca ptr, align 8
  %8 = alloca ptr, align 8
  %9 = alloca i8, align 1
  %10 = alloca i32, align 4
  %11 = alloca ptr, align 8
  store ptr %0, ptr %6, align 8
  store ptr %1, ptr %7, align 8
  store ptr %2, ptr %8, align 8
  %12 = zext i1 %3 to i8
  store i8 %12, ptr %9, align 1
  %13 = load i8, ptr %9, align 1
  %14 = trunc i8 %13 to i1
  %15 = zext i1 %14 to i32
  store i32 %15, ptr %10, align 4
  %16 = load i8, ptr %9, align 1
  %17 = trunc i8 %16 to i1
  br i1 %17, label %24, label %18

18:                                               ; preds = %4
  %19 = load ptr, ptr %6, align 8
  %20 = getelementptr inbounds %struct._xmlNode, ptr %19, i32 0, i32 1
  %21 = load i32, ptr %20, align 8
  %22 = icmp eq i32 %21, 1
  br i1 %22, label %23, label %24

23:                                               ; preds = %18
  store i32 2, ptr %10, align 4
  br label %24

24:                                               ; preds = %23, %18, %4
  %25 = load ptr, ptr %6, align 8
  %26 = load ptr, ptr %7, align 8
  %27 = load i32, ptr %10, align 4
  %28 = call ptr @xmlDocCopyNode(ptr noundef %25, ptr noundef %26, i32 noundef %27)
  store ptr %28, ptr %11, align 8
  %29 = load ptr, ptr %11, align 8
  %30 = icmp ne ptr %29, null
  %31 = xor i1 %30, true
  %32 = xor i1 %31, true
  %33 = xor i1 %32, true
  %34 = zext i1 %33 to i32
  %35 = sext i32 %34 to i64
  %36 = icmp ne i64 %35, 0
  br i1 %36, label %37, label %38

37:                                               ; preds = %24
  store ptr null, ptr %5, align 8
  br label %55

38:                                               ; preds = %24
  %39 = load ptr, ptr %8, align 8
  %40 = getelementptr inbounds %struct._dom_object, ptr %39, i32 0, i32 1
  %41 = load ptr, ptr %40, align 8
  %42 = icmp ne ptr %41, null
  br i1 %42, label %43, label %53

43:                                               ; preds = %38
  %44 = load ptr, ptr %8, align 8
  %45 = getelementptr inbounds %struct._dom_object, ptr %44, i32 0, i32 1
  %46 = load ptr, ptr %45, align 8
  %47 = getelementptr inbounds %struct._php_libxml_ref_obj, ptr %46, i32 0, i32 4
  %48 = load i8, ptr %47, align 4
  %49 = trunc i8 %48 to i1
  br i1 %49, label %50, label %53

50:                                               ; preds = %43
  %51 = load ptr, ptr %11, align 8
  %52 = load ptr, ptr %6, align 8
  call void @dom_mark_namespaces_for_copy_based_on_copy(ptr noundef %51, ptr noundef %52)
  br label %53

53:                                               ; preds = %50, %43, %38
  %54 = load ptr, ptr %11, align 8
  store ptr %54, ptr %5, align 8
  br label %55

55:                                               ; preds = %53, %37
  %56 = load ptr, ptr %5, align 8
  ret ptr %56
}