; Function Attrs: nounwind uwtable
define hidden ptr @dom_clone_node(ptr noundef %0, ptr noundef %1, ptr nocapture noundef readonly %2, i1 noundef zeroext %3) local_unnamed_addr #1 {
  br i1 %3, label %9, label %5

5:                                                ; preds = %4
  %6 = getelementptr inbounds i8, ptr %0, i64 8
  %7 = load i32, ptr %6, align 8
  %8 = icmp eq i32 %7, 1
  %spec.select = select i1 %8, i32 2, i32 0
  br label %9

9:                                                ; preds = %5, %4
  %.012 = phi i32 [ 1, %4 ], [ %spec.select, %5 ]
  %10 = tail call ptr @xmlDocCopyNode(ptr noundef %0, ptr noundef %1, i32 noundef %.012) #16
  %.not = icmp eq ptr %10, null
  br i1 %.not, label %19, label %11

11:                                               ; preds = %9
  %12 = getelementptr inbounds i8, ptr %2, i64 8
  %13 = load ptr, ptr %12, align 8
  %.not14 = icmp eq ptr %13, null
  br i1 %.not14, label %19, label %14

14:                                               ; preds = %11
  %15 = getelementptr inbounds i8, ptr %13, i64 28
  %16 = load i8, ptr %15, align 4
  %17 = and i8 %16, 1
  %.not15 = icmp eq i8 %17, 0
  br i1 %.not15, label %19, label %18

18:                                               ; preds = %14
  tail call void @dom_mark_namespaces_for_copy_based_on_copy(ptr noundef nonnull %10, ptr noundef %0) #16
  br label %19

19:                                               ; preds = %11, %14, %18, %9
  ret ptr %10
}